; Function Attrs: mustprogress uwtable
define dso_local void @_ZNK19btMinkowskiSumShape49batchedUnitVectorGetSupportingVertexWithoutMarginEPK9btVector3PS0_i(ptr noundef nonnull align 8 dereferenceable(216) %this, ptr noundef %vectors, ptr nocapture noundef writeonly %supportVerticesOut, i32 noundef %numVectors) unnamed_addr #2 align 2 {
entry:
  %cmp4 = icmp sgt i32 %numVectors, 0
  br i1 %cmp4, label %for.body.preheader, label %for.end

for.body.preheader:                               ; preds = %entry
  %wide.trip.count = zext nneg i32 %numVectors to i64
  br label %for.body

for.body:                                         ; preds = %for.body.preheader, %for.body
  %indvars.iv = phi i64 [ 0, %for.body.preheader ], [ %indvars.iv.next, %for.body ]
  %arrayidx = getelementptr inbounds %class.btVector3, ptr %vectors, i64 %indvars.iv
  %vtable = load ptr, ptr %this, align 8
  %vfn = getelementptr inbounds i8, ptr %vtable, i64 136
  %0 = load ptr, ptr %vfn, align 8
  %call = tail call { <2 x float>, <2 x float> } %0(ptr noundef nonnull align 8 dereferenceable(216) %this, ptr noundef nonnull align 4 dereferenceable(16) %arrayidx)
  %1 = extractvalue { <2 x float>, <2 x float> } %call, 0
  %2 = extractvalue { <2 x float>, <2 x float> } %call, 1
  %arrayidx3 = getelementptr inbounds %class.btVector3, ptr %supportVerticesOut, i64 %indvars.iv
  store <2 x float> %1, ptr %arrayidx3, align 4
  %ref.tmp.sroa.2.0.arrayidx3.sroa_idx = getelementptr inbounds i8, ptr %arrayidx3, i64 8
  store <2 x float> %2, ptr %ref.tmp.sroa.2.0.arrayidx3.sroa_idx, align 4
  %indvars.iv.next = add nuw nsw i64 %indvars.iv, 1
  %exitcond.not = icmp eq i64 %indvars.iv.next, %wide.trip.count
  br i1 %exitcond.not, label %for.end, label %for.body, !llvm.loop !5

for.end:                                          ; preds = %for.body, %entry
  ret void
}